(inode
Node
p1
(dp2
S'Profile'
p3
(dp4
sS'Name'
p5
Vgene_SYNC
p6
sS'Dictionary'
p7
(dp8
I4096
I0
sI4097
I0
sI4101
I1073741952
sI4102
I100000
sI4608
(lp9
I0
aI0
asI4120
(lp10
I0
aI0
aI0
aI0
asI4736
(lp11
I0
aI0
aI0
assS'SpecificMenu'
p12
(lp13
sS'UserMapping'
p14
(dp15
sS'DS302'
p16
(dp17
sS'ProfileName'
p18
S'None'
p19
sS'Type'
p20
Vslave
p21
sS'ID'
p22
I3
sb.